target datalayout = "e-m:e-p270:32:32-p271:32:32-p272:64:64-i64:64-i128:128-f80:128-n8:16:32:64-S128"
target triple = "x86_64-pc-linux-gnu"

%struct.ec_group_st = type { ptr, ptr, %struct.bignum_st, %struct.bignum_st, i32, ptr, %struct.bignum_st, %struct.bignum_st, %struct.bignum_st, i32, ptr, %struct.bignum_st }
%struct.bignum_st = type { ptr, i32, i32, i32, i32 }

@.str = private unnamed_addr constant [129 x i8] c"generated/home/dtcxzyw/WorkSpace/Projects/compilers/llvm-opt-benchmark/bench/libquic/libquic/boringssl/crypto/ec/ec_montgomery.c\00", align 1

; Function Attrs: nounwind uwtable
define hidden i32 @ec_GFp_mont_group_set_curve(ptr noundef %0, ptr noundef %1, ptr noundef %2, ptr noundef %3, ptr noundef %4) #0 {
  %6 = alloca i32, align 4
  %7 = alloca ptr, align 8
  %8 = alloca ptr, align 8
  %9 = alloca ptr, align 8
  %10 = alloca ptr, align 8
  %11 = alloca ptr, align 8
  %12 = alloca ptr, align 8
  %13 = alloca ptr, align 8
  %14 = alloca i32, align 4
  %15 = alloca i32, align 4
  store ptr %0, ptr %7, align 8, !tbaa !6
  store ptr %1, ptr %8, align 8, !tbaa !20
  store ptr %2, ptr %9, align 8, !tbaa !20
  store ptr %3, ptr %10, align 8, !tbaa !20
  store ptr %4, ptr %11, align 8, !tbaa !22
  call void @llvm.lifetime.start.p0(i64 8, ptr %12) #3
  store ptr null, ptr %12, align 8, !tbaa !22
  call void @llvm.lifetime.start.p0(i64 8, ptr %13) #3
  store ptr null, ptr %13, align 8, !tbaa !24
  call void @llvm.lifetime.start.p0(i64 4, ptr %14) #3
  store i32 0, ptr %14, align 4, !tbaa !11
  %16 = load ptr, ptr %7, align 8, !tbaa !6
  %17 = getelementptr inbounds nuw %struct.ec_group_st, ptr %16, i32 0, i32 10
  %18 = load ptr, ptr %17, align 8, !tbaa !13
  call void @BN_MONT_CTX_free(ptr noundef %18)
  %19 = load ptr, ptr %7, align 8, !tbaa !6
  %20 = getelementptr inbounds nuw %struct.ec_group_st, ptr %19, i32 0, i32 10
  store ptr null, ptr %20, align 8, !tbaa !13
  %21 = load ptr, ptr %11, align 8, !tbaa !22
  %22 = icmp eq ptr %21, null
  br i1 %22, label %23, label %29

23:                                               ; preds = %5
  %24 = call ptr @BN_CTX_new()
  store ptr %24, ptr %12, align 8, !tbaa !22
  store ptr %24, ptr %11, align 8, !tbaa !22
  %25 = load ptr, ptr %11, align 8, !tbaa !22
  %26 = icmp eq ptr %25, null
  br i1 %26, label %27, label %28

27:                                               ; preds = %23
  store i32 0, ptr %6, align 4
  store i32 1, ptr %15, align 4
  br label %64

28:                                               ; preds = %23
  br label %29

29:                                               ; preds = %28, %5
  %30 = call ptr @BN_MONT_CTX_new()
  store ptr %30, ptr %13, align 8, !tbaa !24
  %31 = load ptr, ptr %13, align 8, !tbaa !24
  %32 = icmp eq ptr %31, null
  br i1 %32, label %33, label %34

33:                                               ; preds = %29
  br label %60

34:                                               ; preds = %29
  %35 = load ptr, ptr %13, align 8, !tbaa !24
  %36 = load ptr, ptr %8, align 8, !tbaa !20
  %37 = load ptr, ptr %11, align 8, !tbaa !22
  %38 = call i32 @BN_MONT_CTX_set(ptr noundef %35, ptr noundef %36, ptr noundef %37)
  %39 = icmp ne i32 %38, 0
  br i1 %39, label %41, label %40

40:                                               ; preds = %34
  call void @ERR_put_error(i32 noundef 15, i32 noundef 0, i32 noundef 3, ptr noundef @.str, i32 noundef 138)
  br label %60

41:                                               ; preds = %34
  %42 = load ptr, ptr %13, align 8, !tbaa !24
  %43 = load ptr, ptr %7, align 8, !tbaa !6
  %44 = getelementptr inbounds nuw %struct.ec_group_st, ptr %43, i32 0, i32 10
  store ptr %42, ptr %44, align 8, !tbaa !13
  store ptr null, ptr %13, align 8, !tbaa !24
  %45 = load ptr, ptr %7, align 8, !tbaa !6
  %46 = load ptr, ptr %8, align 8, !tbaa !20
  %47 = load ptr, ptr %9, align 8, !tbaa !20
  %48 = load ptr, ptr %10, align 8, !tbaa !20
  %49 = load ptr, ptr %11, align 8, !tbaa !22
  %50 = call i32 @ec_GFp_simple_group_set_curve(ptr noundef %45, ptr noundef %46, ptr noundef %47, ptr noundef %48, ptr noundef %49)
  store i32 %50, ptr %14, align 4, !tbaa !11
  %51 = load i32, ptr %14, align 4, !tbaa !11
  %52 = icmp ne i32 %51, 0
  br i1 %52, label %59, label %53

53:                                               ; preds = %41
  %54 = load ptr, ptr %7, align 8, !tbaa !6
  %55 = getelementptr inbounds nuw %struct.ec_group_st, ptr %54, i32 0, i32 10
  %56 = load ptr, ptr %55, align 8, !tbaa !13
  call void @BN_MONT_CTX_free(ptr noundef %56)
  %57 = load ptr, ptr %7, align 8, !tbaa !6
  %58 = getelementptr inbounds nuw %struct.ec_group_st, ptr %57, i32 0, i32 10
  store ptr null, ptr %58, align 8, !tbaa !13
  br label %59

59:                                               ; preds = %53, %41
  br label %60

60:                                               ; preds = %59, %40, %33
  %61 = load ptr, ptr %12, align 8, !tbaa !22
  call void @BN_CTX_free(ptr noundef %61)
  %62 = load ptr, ptr %13, align 8, !tbaa !24
  call void @BN_MONT_CTX_free(ptr noundef %62)
  %63 = load i32, ptr %14, align 4, !tbaa !11
  store i32 %63, ptr %6, align 4
  store i32 1, ptr %15, align 4
  br label %64

64:                                               ; preds = %60, %27
  call void @llvm.lifetime.end.p0(i64 4, ptr %14) #3
  call void @llvm.lifetime.end.p0(i64 8, ptr %13) #3
  call void @llvm.lifetime.end.p0(i64 8, ptr %12) #3
  %65 = load i32, ptr %6, align 4
  ret i32 %65
}