; Function Attrs: nounwind uwtable
define hidden i32 @ec_GFp_mont_group_set_curve(ptr noundef %0, ptr noundef %1, ptr noundef %2, ptr noundef %3, ptr noundef %4) #0 {
  %6 = getelementptr inbounds nuw i8, ptr %0, i64 160
  %7 = load ptr, ptr %6, align 8, !tbaa !6
  tail call void @BN_MONT_CTX_free(ptr noundef %7) #3
  store ptr null, ptr %6, align 8, !tbaa !6
  %8 = icmp eq ptr %4, null
  br i1 %8, label %9, label %12

9:                                                ; preds = %5
  %10 = tail call ptr @BN_CTX_new() #3
  %11 = icmp eq ptr %10, null
  br i1 %11, label %23, label %12

12:                                               ; preds = %9, %5
  %.023 = phi ptr [ %10, %9 ], [ %4, %5 ]
  %.022 = phi ptr [ %10, %9 ], [ null, %5 ]
  %13 = tail call ptr @BN_MONT_CTX_new() #3
  %14 = icmp eq ptr %13, null
  br i1 %14, label %22, label %15

15:                                               ; preds = %12
  %16 = tail call i32 @BN_MONT_CTX_set(ptr noundef nonnull %13, ptr noundef %1, ptr noundef nonnull %.023) #3
  %.not = icmp eq i32 %16, 0
  br i1 %.not, label %17, label %18

17:                                               ; preds = %15
  tail call void @ERR_put_error(i32 noundef 15, i32 noundef 0, i32 noundef 3, ptr noundef nonnull @.str, i32 noundef 138) #3
  br label %22

18:                                               ; preds = %15
  store ptr %13, ptr %6, align 8, !tbaa !6
  %19 = tail call i32 @ec_GFp_simple_group_set_curve(ptr noundef nonnull %0, ptr noundef %1, ptr noundef %2, ptr noundef %3, ptr noundef nonnull %.023) #3
  %.not30 = icmp eq i32 %19, 0
  br i1 %.not30, label %20, label %22

20:                                               ; preds = %18
  %21 = load ptr, ptr %6, align 8, !tbaa !6
  tail call void @BN_MONT_CTX_free(ptr noundef %21) #3
  store ptr null, ptr %6, align 8, !tbaa !6
  br label %22

22:                                               ; preds = %18, %20, %12, %17
  %.021 = phi ptr [ null, %12 ], [ null, %18 ], [ null, %20 ], [ %13, %17 ]
  %.0 = phi i32 [ 0, %12 ], [ %19, %18 ], [ 0, %20 ], [ 0, %17 ]
  tail call void @BN_CTX_free(ptr noundef %.022) #3
  tail call void @BN_MONT_CTX_free(ptr noundef %.021) #3
  br label %23

23:                                               ; preds = %9, %22
  %.024 = phi i32 [ %.0, %22 ], [ 0, %9 ]
  ret i32 %.024
}